; Function Attrs: mustprogress nofree norecurse nosync nounwind willreturn memory(argmem: write) uwtable
define range(i32 -173, 2) i32 @wolfSSL_SetMaxDhKey_Sz(ptr noundef writeonly captures(address_is_null) %0, i16 noundef zeroext %1) local_unnamed_addr #5 {
  %3 = icmp ne ptr %0, null
  %4 = icmp ult i16 %1, 16001
  %or.cond.not12 = and i1 %3, %4
  %5 = and i16 %1, 7
  %.not = icmp eq i16 %5, 0
  %or.cond9 = and i1 %or.cond.not12, %.not
  br i1 %or.cond9, label %6, label %9

6:                                                ; preds = %2
  %7 = lshr exact i16 %1, 3
  %8 = getelementptr inbounds nuw i8, ptr %0, i64 1056
  store i16 %7, ptr %8, align 8, !tbaa !155
  br label %9

9:                                                ; preds = %2, %6
  %.0 = phi i32 [ 1, %6 ], [ -173, %2 ]
  ret i32 %.0
}